target datalayout = "e-m:e-p270:32:32-p271:32:32-p272:64:64-i64:64-i128:128-f80:128-n8:16:32:64-S128"
target triple = "x86_64-pc-linux-gnu"

; Function Attrs: inlinehint nounwind sspstrong willreturn memory(none) uwtable
define internal zeroext i1 @RB_UNDEF_P(i64 noundef %0) #4 {
  %2 = alloca i64, align 8
  store i64 %0, ptr %2, align 8, !tbaa !7
  %3 = load i64, ptr %2, align 8, !tbaa !7
  %4 = icmp eq i64 %3, 36
  ret i1 %4
}

; Function Attrs: nounwind sspstrong uwtable
define internal zeroext i1 @wmap_live_p(i64 noundef %0) #0 {
  %2 = alloca i64, align 8
  store i64 %0, ptr %2, align 8, !tbaa !7
  %3 = load i64, ptr %2, align 8, !tbaa !7
  %4 = call zeroext i1 @RB_UNDEF_P(i64 noundef %3) #16
  %5 = xor i1 %4, true
  ret i1 %5
}

; Function Attrs: nounwind sspstrong uwtable
define internal i32 @wmap_cmp(i64 noundef %0, i64 noundef %1) #0 {
  %3 = alloca i32, align 4
  %4 = alloca i64, align 8
  %5 = alloca i64, align 8
  %6 = alloca i64, align 8
  %7 = alloca i64, align 8
  %8 = alloca i32, align 4
  store i64 %0, ptr %4, align 8, !tbaa !7
  store i64 %1, ptr %5, align 8, !tbaa !7
  call void @llvm.lifetime.start.p0(i64 8, ptr %6) #15
  %9 = load i64, ptr %4, align 8, !tbaa !7
  %10 = inttoptr i64 %9 to ptr
  %11 = load i64, ptr %10, align 8, !tbaa !7
  store i64 %11, ptr %6, align 8, !tbaa !7
  call void @llvm.lifetime.start.p0(i64 8, ptr %7) #15
  %12 = load i64, ptr %5, align 8, !tbaa !7
  %13 = inttoptr i64 %12 to ptr
  %14 = load i64, ptr %13, align 8, !tbaa !7
  store i64 %14, ptr %7, align 8, !tbaa !7
  %15 = load i64, ptr %6, align 8, !tbaa !7
  %16 = call zeroext i1 @wmap_live_p(i64 noundef %15)
  br i1 %16, label %25, label %17

17:                                               ; preds = %2
  %18 = load i64, ptr %7, align 8, !tbaa !7
  %19 = call zeroext i1 @wmap_live_p(i64 noundef %18)
  br i1 %19, label %25, label %20

20:                                               ; preds = %17
  %21 = load i64, ptr %4, align 8, !tbaa !7
  %22 = load i64, ptr %5, align 8, !tbaa !7
  %23 = icmp ne i64 %21, %22
  %24 = zext i1 %23 to i32
  store i32 %24, ptr %3, align 4
  store i32 1, ptr %8, align 4
  br label %30

25:                                               ; preds = %17, %2
  %26 = load i64, ptr %6, align 8, !tbaa !7
  %27 = load i64, ptr %7, align 8, !tbaa !7
  %28 = icmp ne i64 %26, %27
  %29 = zext i1 %28 to i32
  store i32 %29, ptr %3, align 4
  store i32 1, ptr %8, align 4
  br label %30

30:                                               ; preds = %25, %20
  call void @llvm.lifetime.end.p0(i64 8, ptr %7) #15
  call void @llvm.lifetime.end.p0(i64 8, ptr %6) #15
  %31 = load i32, ptr %3, align 4
  ret i32 %31
}