; Function Attrs: mustprogress nofree norecurse nosync nounwind sspstrong willreturn memory(read, inaccessiblemem: none) uwtable
define internal range(i32 0, 2) i32 @wmap_cmp(i64 noundef %0, i64 noundef %1) #5 {
  %3 = inttoptr i64 %0 to ptr
  %4 = load i64, ptr %3, align 8, !tbaa !7
  %5 = inttoptr i64 %1 to ptr
  %6 = load i64, ptr %5, align 8, !tbaa !7
  %7 = icmp ne i64 %4, 36
  %8 = icmp ne i64 %6, 36
  %or.cond = select i1 %7, i1 true, i1 %8
  br i1 %or.cond, label %11, label %9

9:                                                ; preds = %2
  %10 = icmp ne i64 %0, %1
  br label %13

11:                                               ; preds = %2
  %12 = icmp ne i64 %4, %6
  br label %13

13:                                               ; preds = %11, %9
  %.0.in = phi i1 [ %12, %11 ], [ %10, %9 ]
  %.0 = zext i1 %.0.in to i32
  ret i32 %.0
}